; Function Attrs: nounwind uwtable
define internal fastcc i32 @ssl_connect(ptr noundef %0, ptr noundef %1) unnamed_addr #2 {
  %3 = getelementptr inbounds nuw i8, ptr %0, i64 16
  %4 = load ptr, ptr %3, align 8
  %5 = getelementptr inbounds nuw i8, ptr %1, i64 1376
  %6 = load i8, ptr %5, align 8
  %7 = zext i8 %6 to i32
  %8 = icmp ugt i8 %6, 7
  br i1 %8, label %ssl_prefs_check.exit, label %9

9:                                                ; preds = %2
  %10 = getelementptr inbounds nuw i8, ptr %1, i64 1372
  %11 = load i32, ptr %10, align 4
  switch i32 %11, label %12 [
    i32 0, label %15
    i32 65536, label %15
  ]

12:                                               ; preds = %9
  %13 = lshr i32 %11, 16
  %14 = icmp samesign ult i32 %13, %7
  br i1 %14, label %ssl_prefs_check.exit, label %15

ssl_prefs_check.exit:                             ; preds = %2, %12
  %.str.24.sink.i = phi ptr [ @.str.23, %2 ], [ @.str.24, %12 ]
  tail call void (ptr, ptr, ...) @Curl_failf(ptr noundef nonnull %1, ptr noundef nonnull %.str.24.sink.i) #18
  br label %20

15:                                               ; preds = %12, %9, %9
  store i32 1, ptr %4, align 8
  %16 = load ptr, ptr @Curl_ssl, align 8
  %17 = getelementptr inbounds nuw i8, ptr %16, i64 96
  %18 = load ptr, ptr %17, align 8
  %19 = tail call i32 %18(ptr noundef nonnull %0, ptr noundef nonnull %1) #18
  br label %20

20:                                               ; preds = %ssl_prefs_check.exit, %15
  %.0 = phi i32 [ %19, %15 ], [ 35, %ssl_prefs_check.exit ]
  ret i32 %.0
}